; Function Attrs: nounwind uwtable
define internal ptr @getProcAddressGLX(ptr noundef %0) #0 {
  %2 = load ptr, ptr getelementptr inbounds nuw (i8, ptr @_glfw, i64 143488), align 8, !tbaa !107
  %.not = icmp eq ptr %2, null
  br i1 %.not, label %5, label %3

3:                                                ; preds = %1
  %4 = tail call ptr %2(ptr noundef %0) #4
  br label %12

5:                                                ; preds = %1
  %6 = load ptr, ptr getelementptr inbounds nuw (i8, ptr @_glfw, i64 143496), align 8, !tbaa !108
  %.not6 = icmp eq ptr %6, null
  br i1 %.not6, label %9, label %7

7:                                                ; preds = %5
  %8 = tail call ptr %6(ptr noundef %0) #4
  br label %12

9:                                                ; preds = %5
  %10 = load ptr, ptr getelementptr inbounds nuw (i8, ptr @_glfw, i64 143376), align 8, !tbaa !3
  %11 = tail call ptr @_glfwPlatformGetModuleSymbol(ptr noundef %10, ptr noundef %0) #4
  br label %12

12:                                               ; preds = %9, %7, %3
  %.0 = phi ptr [ %4, %3 ], [ %8, %7 ], [ %11, %9 ]
  ret ptr %.0
}